
testSIMD2:     file format mach-o-arm64


Disassembly of section .text:

0000000100003b38 <_main>:
   100003b38:	d10483ff 	sub	sp, sp, #0x120
   100003b3c:	6d0e23e9 	stp	d9, d8, [sp, #224]
   100003b40:	a90f6ffc 	stp	x28, x27, [sp, #240]
   100003b44:	a9104ff4 	stp	x20, x19, [sp, #256]
   100003b48:	a9117bfd 	stp	x29, x30, [sp, #272]
   100003b4c:	910443fd 	add	x29, sp, #0x110
   100003b50:	d503201f 	nop
   100003b54:	580025a8 	ldr	x8, 100004008 <__PromotedConst.1+0x88>
   100003b58:	f9400108 	ldr	x8, [x8]
   100003b5c:	f81c83a8 	stur	x8, [x29, #-56]
   100003b60:	52800000 	mov	w0, #0x0                   	// #0
   100003b64:	940000ef 	bl	100003f20 <_rot_vec3d+0xb0>
   100003b68:	940000e8 	bl	100003f08 <_rot_vec3d+0x98>
   100003b6c:	5289ba73 	mov	w19, #0x4dd3                	// #19923
   100003b70:	72a20c53 	movk	w19, #0x1062, lsl #16
   100003b74:	9b337c08 	smull	x8, w0, w19
   100003b78:	d360fd09 	lsr	x9, x8, #32
   100003b7c:	d37ffd08 	lsr	x8, x8, #63
   100003b80:	0b891908 	add	w8, w8, w9, asr #6
   100003b84:	52807d14 	mov	w20, #0x3e8                 	// #1000
   100003b88:	1b148108 	msub	w8, w8, w20, w0
   100003b8c:	1e620100 	scvtf	d0, w8
   100003b90:	d28e3868 	mov	x8, #0x71c3                	// #29123
   100003b94:	f2b6d168 	movk	x8, #0xb68b, lsl #16
   100003b98:	f2d78ca8 	movk	x8, #0xbc65, lsl #32
   100003b9c:	f2e7ef28 	movk	x8, #0x3f79, lsl #48
   100003ba0:	9e670108 	fmov	d8, x8
   100003ba4:	1e680800 	fmul	d0, d0, d8
   100003ba8:	1e624000 	fcvt	s0, d0
   100003bac:	bc1b83a0 	stur	s0, [x29, #-72]
   100003bb0:	940000d6 	bl	100003f08 <_rot_vec3d+0x98>
   100003bb4:	9b337c08 	smull	x8, w0, w19
   100003bb8:	d360fd09 	lsr	x9, x8, #32
   100003bbc:	d37ffd08 	lsr	x8, x8, #63
   100003bc0:	0b891908 	add	w8, w8, w9, asr #6
   100003bc4:	1b148108 	msub	w8, w8, w20, w0
   100003bc8:	1e620100 	scvtf	d0, w8
   100003bcc:	1e680800 	fmul	d0, d0, d8
   100003bd0:	1e624000 	fcvt	s0, d0
   100003bd4:	bc1bc3a0 	stur	s0, [x29, #-68]
   100003bd8:	940000cc 	bl	100003f08 <_rot_vec3d+0x98>
   100003bdc:	9b337c08 	smull	x8, w0, w19
   100003be0:	d360fd09 	lsr	x9, x8, #32
   100003be4:	d37ffd08 	lsr	x8, x8, #63
   100003be8:	0b891908 	add	w8, w8, w9, asr #6
   100003bec:	1b148108 	msub	w8, w8, w20, w0
   100003bf0:	1e620100 	scvtf	d0, w8
   100003bf4:	1e680800 	fmul	d0, d0, d8
   100003bf8:	1e624000 	fcvt	s0, d0
   100003bfc:	bc1c03a0 	stur	s0, [x29, #-64]
   100003c00:	940000c2 	bl	100003f08 <_rot_vec3d+0x98>
   100003c04:	9b337c08 	smull	x8, w0, w19
   100003c08:	d360fd09 	lsr	x9, x8, #32
   100003c0c:	d37ffd08 	lsr	x8, x8, #63
   100003c10:	0b891908 	add	w8, w8, w9, asr #6
   100003c14:	1b148108 	msub	w8, w8, w20, w0
   100003c18:	1e620100 	scvtf	d0, w8
   100003c1c:	1e680800 	fmul	d0, d0, d8
   100003c20:	1e624000 	fcvt	s0, d0
   100003c24:	bc1c43a0 	stur	s0, [x29, #-60]
   100003c28:	bc5b83a0 	ldur	s0, [x29, #-72]
   100003c2c:	1e22c000 	fcvt	d0, s0
   100003c30:	940000b9 	bl	100003f14 <_rot_vec3d+0xa4>
   100003c34:	1e624000 	fcvt	s0, d0
   100003c38:	3d801be0 	str	q0, [sp, #96]
   100003c3c:	bc5bc3a0 	ldur	s0, [x29, #-68]
   100003c40:	1e22c000 	fcvt	d0, s0
   100003c44:	940000b4 	bl	100003f14 <_rot_vec3d+0xa4>
   100003c48:	1e624000 	fcvt	s0, d0
   100003c4c:	3d8017e0 	str	q0, [sp, #80]
   100003c50:	bc5c03a0 	ldur	s0, [x29, #-64]
   100003c54:	1e22c000 	fcvt	d0, s0
   100003c58:	940000af 	bl	100003f14 <_rot_vec3d+0xa4>
   100003c5c:	1e624000 	fcvt	s0, d0
   100003c60:	3d8013e0 	str	q0, [sp, #64]
   100003c64:	bc5c43a0 	ldur	s0, [x29, #-60]
   100003c68:	1e22c000 	fcvt	d0, s0
   100003c6c:	940000aa 	bl	100003f14 <_rot_vec3d+0xa4>
   100003c70:	1e624000 	fcvt	s0, d0
   100003c74:	ad4287e2 	ldp	q2, q1, [sp, #80]
   100003c78:	6e0c0441 	mov	v1.s[1], v2.s[0]
   100003c7c:	3dc013e2 	ldr	q2, [sp, #64]
   100003c80:	6e140441 	mov	v1.s[2], v2.s[0]
   100003c84:	6e1c0401 	mov	v1.s[3], v0.s[0]
   100003c88:	3d801be1 	str	q1, [sp, #96]
   100003c8c:	bc5b83a0 	ldur	s0, [x29, #-72]
   100003c90:	1e22c000 	fcvt	d0, s0
   100003c94:	94000097 	bl	100003ef0 <_rot_vec3d+0x80>
   100003c98:	1e624000 	fcvt	s0, d0
   100003c9c:	3d8017e0 	str	q0, [sp, #80]
   100003ca0:	bc5bc3a0 	ldur	s0, [x29, #-68]
   100003ca4:	1e22c000 	fcvt	d0, s0
   100003ca8:	94000092 	bl	100003ef0 <_rot_vec3d+0x80>
   100003cac:	1e624000 	fcvt	s0, d0
   100003cb0:	3d8013e0 	str	q0, [sp, #64]
   100003cb4:	bc5c03a0 	ldur	s0, [x29, #-64]
   100003cb8:	1e22c000 	fcvt	d0, s0
   100003cbc:	9400008d 	bl	100003ef0 <_rot_vec3d+0x80>
   100003cc0:	1e624000 	fcvt	s0, d0
   100003cc4:	3d800fe0 	str	q0, [sp, #48]
   100003cc8:	bc5c43a0 	ldur	s0, [x29, #-60]
   100003ccc:	1e22c000 	fcvt	d0, s0
   100003cd0:	94000088 	bl	100003ef0 <_rot_vec3d+0x80>
   100003cd4:	1e624000 	fcvt	s0, d0
   100003cd8:	ad4207e2 	ldp	q2, q1, [sp, #64]
   100003cdc:	6e0c0441 	mov	v1.s[1], v2.s[0]
   100003ce0:	3dc00fe2 	ldr	q2, [sp, #48]
   100003ce4:	6e140441 	mov	v1.s[2], v2.s[0]
   100003ce8:	6e1c0401 	mov	v1.s[3], v0.s[0]
   100003cec:	3dc01be0 	ldr	q0, [sp, #96]
   100003cf0:	3c9a03a0 	stur	q0, [x29, #-96]
   100003cf4:	3c9903a1 	stur	q1, [x29, #-112]
   100003cf8:	3cda03a0 	ldur	q0, [x29, #-96]
   100003cfc:	3cd903a1 	ldur	q1, [x29, #-112]
   100003d00:	10001288 	adr	x8, 100003f50 <__PromotedConst>
   100003d04:	d503201f 	nop
   100003d08:	ad400d02 	ldp	q2, q3, [x8]
   100003d0c:	3dc00904 	ldr	q4, [x8, #32]
   100003d10:	10001388 	adr	x8, 100003f80 <__PromotedConst.1>
   100003d14:	d503201f 	nop
   100003d18:	ad401905 	ldp	q5, q6, [x8]
   100003d1c:	3dc00907 	ldr	q7, [x8, #32]
   100003d20:	94000054 	bl	100003e70 <_rot_vec3d>
   100003d24:	3c9803a0 	stur	q0, [x29, #-128]
   100003d28:	3d8023e1 	str	q1, [sp, #128]
   100003d2c:	3d801fe2 	str	q2, [sp, #112]
   100003d30:	bc5b83a0 	ldur	s0, [x29, #-72]
   100003d34:	1e22c000 	fcvt	d0, s0
   100003d38:	3cd803a1 	ldur	q1, [x29, #-128]
   100003d3c:	1e22c021 	fcvt	d1, s1
   100003d40:	3dc023e2 	ldr	q2, [sp, #128]
   100003d44:	1e22c042 	fcvt	d2, s2
   100003d48:	3dc01fe3 	ldr	q3, [sp, #112]
   100003d4c:	1e22c063 	fcvt	d3, s3
   100003d50:	6d018fe2 	stp	d2, d3, [sp, #24]
   100003d54:	6d0087e0 	stp	d0, d1, [sp, #8]
   100003d58:	f90003ff 	str	xzr, [sp]
   100003d5c:	10000e93 	adr	x19, 100003f2c <_rot_vec3d+0xbc>
   100003d60:	d503201f 	nop
   100003d64:	aa1303e0 	mov	x0, x19
   100003d68:	94000065 	bl	100003efc <_rot_vec3d+0x8c>
   100003d6c:	bc5bc3a0 	ldur	s0, [x29, #-68]
   100003d70:	1e22c000 	fcvt	d0, s0
   100003d74:	3cd803a1 	ldur	q1, [x29, #-128]
   100003d78:	5e0c0421 	mov	s1, v1.s[1]
   100003d7c:	1e22c021 	fcvt	d1, s1
   100003d80:	3dc023e2 	ldr	q2, [sp, #128]
   100003d84:	5e0c0442 	mov	s2, v2.s[1]
   100003d88:	1e22c042 	fcvt	d2, s2
   100003d8c:	3dc01fe3 	ldr	q3, [sp, #112]
   100003d90:	5e0c0463 	mov	s3, v3.s[1]
   100003d94:	1e22c063 	fcvt	d3, s3
   100003d98:	6d018fe2 	stp	d2, d3, [sp, #24]
   100003d9c:	6d0087e0 	stp	d0, d1, [sp, #8]
   100003da0:	52800028 	mov	w8, #0x1                   	// #1
   100003da4:	f90003e8 	str	x8, [sp]
   100003da8:	aa1303e0 	mov	x0, x19
   100003dac:	94000054 	bl	100003efc <_rot_vec3d+0x8c>
   100003db0:	bc5c03a0 	ldur	s0, [x29, #-64]
   100003db4:	1e22c000 	fcvt	d0, s0
   100003db8:	3cd803a1 	ldur	q1, [x29, #-128]
   100003dbc:	5e140421 	mov	s1, v1.s[2]
   100003dc0:	1e22c021 	fcvt	d1, s1
   100003dc4:	3dc023e2 	ldr	q2, [sp, #128]
   100003dc8:	5e140442 	mov	s2, v2.s[2]
   100003dcc:	1e22c042 	fcvt	d2, s2
   100003dd0:	3dc01fe3 	ldr	q3, [sp, #112]
   100003dd4:	5e140463 	mov	s3, v3.s[2]
   100003dd8:	1e22c063 	fcvt	d3, s3
   100003ddc:	6d018fe2 	stp	d2, d3, [sp, #24]
   100003de0:	6d0087e0 	stp	d0, d1, [sp, #8]
   100003de4:	52800048 	mov	w8, #0x2                   	// #2
   100003de8:	f90003e8 	str	x8, [sp]
   100003dec:	aa1303e0 	mov	x0, x19
   100003df0:	94000043 	bl	100003efc <_rot_vec3d+0x8c>
   100003df4:	bc5c43a0 	ldur	s0, [x29, #-60]
   100003df8:	1e22c000 	fcvt	d0, s0
   100003dfc:	3cd803a1 	ldur	q1, [x29, #-128]
   100003e00:	5e1c0421 	mov	s1, v1.s[3]
   100003e04:	1e22c021 	fcvt	d1, s1
   100003e08:	3dc023e2 	ldr	q2, [sp, #128]
   100003e0c:	5e1c0442 	mov	s2, v2.s[3]
   100003e10:	1e22c042 	fcvt	d2, s2
   100003e14:	3dc01fe3 	ldr	q3, [sp, #112]
   100003e18:	5e1c0463 	mov	s3, v3.s[3]
   100003e1c:	1e22c063 	fcvt	d3, s3
   100003e20:	6d018fe2 	stp	d2, d3, [sp, #24]
   100003e24:	6d0087e0 	stp	d0, d1, [sp, #8]
   100003e28:	52800068 	mov	w8, #0x3                   	// #3
   100003e2c:	f90003e8 	str	x8, [sp]
   100003e30:	aa1303e0 	mov	x0, x19
   100003e34:	94000032 	bl	100003efc <_rot_vec3d+0x8c>
   100003e38:	f85c83a8 	ldur	x8, [x29, #-56]
   100003e3c:	d503201f 	nop
   100003e40:	58000e49 	ldr	x9, 100004008 <__PromotedConst.1+0x88>
   100003e44:	f9400129 	ldr	x9, [x9]
   100003e48:	eb08013f 	cmp	x9, x8
   100003e4c:	54000101 	b.ne	100003e6c <_main+0x334>  // b.any
   100003e50:	52800000 	mov	w0, #0x0                   	// #0
   100003e54:	a9517bfd 	ldp	x29, x30, [sp, #272]
   100003e58:	a9504ff4 	ldp	x20, x19, [sp, #256]
   100003e5c:	a94f6ffc 	ldp	x28, x27, [sp, #240]
   100003e60:	6d4e23e9 	ldp	d9, d8, [sp, #224]
   100003e64:	910483ff 	add	sp, sp, #0x120
   100003e68:	d65f03c0 	ret
   100003e6c:	9400001e 	bl	100003ee4 <_rot_vec3d+0x74>

0000000100003e70 <_rot_vec3d>:
   100003e70:	6e20dc50 	fmul	v16.4s, v2.4s, v0.4s
   100003e74:	6e20dc71 	fmul	v17.4s, v3.4s, v0.4s
   100003e78:	6e20dc84 	fmul	v4.4s, v4.4s, v0.4s
   100003e7c:	6e31dcf2 	fmul	v18.4s, v7.4s, v17.4s
   100003e80:	4ea4ccd2 	fmls	v18.4s, v6.4s, v4.4s
   100003e84:	6e24dcb3 	fmul	v19.4s, v5.4s, v4.4s
   100003e88:	4eb0ccf3 	fmls	v19.4s, v7.4s, v16.4s
   100003e8c:	6e30dcd4 	fmul	v20.4s, v6.4s, v16.4s
   100003e90:	4eb1ccb4 	fmls	v20.4s, v5.4s, v17.4s
   100003e94:	4e21ccb2 	fmla	v18.4s, v5.4s, v1.4s
   100003e98:	4e21ccd3 	fmla	v19.4s, v6.4s, v1.4s
   100003e9c:	4e21ccf4 	fmla	v20.4s, v7.4s, v1.4s
   100003ea0:	6e30dca5 	fmul	v5.4s, v5.4s, v16.4s
   100003ea4:	4e31ccc5 	fmla	v5.4s, v6.4s, v17.4s
   100003ea8:	4e24cce5 	fmla	v5.4s, v7.4s, v4.4s
   100003eac:	6e31de80 	fmul	v0.4s, v20.4s, v17.4s
   100003eb0:	6e24de43 	fmul	v3.4s, v18.4s, v4.4s
   100003eb4:	6e30de62 	fmul	v2.4s, v19.4s, v16.4s
   100003eb8:	4e30cca0 	fmla	v0.4s, v5.4s, v16.4s
   100003ebc:	4e21ce40 	fmla	v0.4s, v18.4s, v1.4s
   100003ec0:	4eb3cc80 	fmls	v0.4s, v4.4s, v19.4s
   100003ec4:	4e31cca3 	fmla	v3.4s, v5.4s, v17.4s
   100003ec8:	4e21ce63 	fmla	v3.4s, v19.4s, v1.4s
   100003ecc:	4eb4ce03 	fmls	v3.4s, v16.4s, v20.4s
   100003ed0:	4e24cca2 	fmla	v2.4s, v5.4s, v4.4s
   100003ed4:	4e21ce82 	fmla	v2.4s, v20.4s, v1.4s
   100003ed8:	4eb2ce22 	fmls	v2.4s, v17.4s, v18.4s
   100003edc:	4ea31c61 	mov	v1.16b, v3.16b
   100003ee0:	d65f03c0 	ret

Disassembly of section __TEXT.__stubs:

0000000100003ee4 <__TEXT.__stubs>:
   100003ee4:	b0000010 	adrp	x16, 100004000 <__PromotedConst.1+0x80>
   100003ee8:	f9400210 	ldr	x16, [x16]
   100003eec:	d61f0200 	br	x16
   100003ef0:	b0000010 	adrp	x16, 100004000 <__PromotedConst.1+0x80>
   100003ef4:	f9400a10 	ldr	x16, [x16, #16]
   100003ef8:	d61f0200 	br	x16
   100003efc:	b0000010 	adrp	x16, 100004000 <__PromotedConst.1+0x80>
   100003f00:	f9400e10 	ldr	x16, [x16, #24]
   100003f04:	d61f0200 	br	x16
   100003f08:	b0000010 	adrp	x16, 100004000 <__PromotedConst.1+0x80>
   100003f0c:	f9401210 	ldr	x16, [x16, #32]
   100003f10:	d61f0200 	br	x16
   100003f14:	b0000010 	adrp	x16, 100004000 <__PromotedConst.1+0x80>
   100003f18:	f9401610 	ldr	x16, [x16, #40]
   100003f1c:	d61f0200 	br	x16
   100003f20:	b0000010 	adrp	x16, 100004000 <__PromotedConst.1+0x80>
   100003f24:	f9401a10 	ldr	x16, [x16, #48]
   100003f28:	d61f0200 	br	x16

Disassembly of section __TEXT.__unwind_info:

0000000100003fb0 <__TEXT.__unwind_info>:
   100003fb0:	00000001 	udf	#1
   100003fb4:	0000001c 	udf	#28
   100003fb8:	00000000 	udf	#0
   100003fbc:	0000001c 	udf	#28
   100003fc0:	00000000 	udf	#0
   100003fc4:	0000001c 	udf	#28
   100003fc8:	00000002 	udf	#2
   100003fcc:	00003b38 	udf	#15160
   100003fd0:	00000034 	udf	#52
   100003fd4:	00000034 	udf	#52
   100003fd8:	00003ee5 	udf	#16101
   100003fdc:	00000000 	udf	#0
   100003fe0:	00000034 	udf	#52
   100003fe4:	00000003 	udf	#3
   100003fe8:	0002000c 	.inst	0x0002000c ; undefined
   100003fec:	00020014 	.inst	0x00020014 ; undefined
   100003ff0:	01000000 	.inst	0x01000000 ; undefined
   100003ff4:	00000338 	udf	#824
   100003ff8:	02000000 	.inst	0x02000000 ; undefined
   100003ffc:	04000111 	add	z17.b, p0/m, z17.b, z8.b
