
test:     file format mach-o-arm64


Disassembly of section .text:

00000001000039f8 <_rotate>:
   1000039f8:	6dbc33ed 	stp	d13, d12, [sp, #-64]!
   1000039fc:	6d012beb 	stp	d11, d10, [sp, #16]
   100003a00:	6d0223e9 	stp	d9, d8, [sp, #32]
   100003a04:	a9037bfd 	stp	x29, x30, [sp, #48]
   100003a08:	9100c3fd 	add	x29, sp, #0x30
   100003a0c:	4ea51ca8 	mov	v8.16b, v5.16b
   100003a10:	4ea41c89 	mov	v9.16b, v4.16b
   100003a14:	4ea31c6a 	mov	v10.16b, v3.16b
   100003a18:	4ea21c4b 	mov	v11.16b, v2.16b
   100003a1c:	4ea11c2c 	mov	v12.16b, v1.16b
   100003a20:	4ea01c0d 	mov	v13.16b, v0.16b
   100003a24:	1e22c0c0 	fcvt	d0, s6
   100003a28:	94000144 	bl	100003f38 <_main+0x484>
   100003a2c:	1e624000 	fcvt	s0, d0
   100003a30:	1e200942 	fmul	s2, s10, s0
   100003a34:	1e200923 	fmul	s3, s9, s0
   100003a38:	1e200904 	fmul	s4, s8, s0
   100003a3c:	1e624025 	fcvt	s5, d1
   100003a40:	1e2509a0 	fmul	s0, s13, s5
   100003a44:	1e250981 	fmul	s1, s12, s5
   100003a48:	1e250966 	fmul	s6, s11, s5
   100003a4c:	1f0b0060 	fmadd	s0, s3, s11, s0
   100003a50:	1f0c8087 	fmsub	s7, s4, s12, s0
   100003a54:	1f0d0480 	fmadd	s0, s4, s13, s1
   100003a58:	1f0b8050 	fmsub	s16, s2, s11, s0
   100003a5c:	1f0c1840 	fmadd	s0, s2, s12, s6
   100003a60:	1f0d8066 	fmsub	s6, s3, s13, s0
   100003a64:	1e2d0840 	fmul	s0, s2, s13
   100003a68:	1f0b0080 	fmadd	s0, s4, s11, s0
   100003a6c:	1f0c0060 	fmadd	s0, s3, s12, s0
   100003a70:	1e220801 	fmul	s1, s0, s2
   100003a74:	1e230811 	fmul	s17, s0, s3
   100003a78:	1e240812 	fmul	s18, s0, s4
   100003a7c:	1f0504e0 	fmadd	s0, s7, s5, s1
   100003a80:	1f0300c0 	fmadd	s0, s6, s3, s0
   100003a84:	1f048200 	fmsub	s0, s16, s4, s0
   100003a88:	1f054601 	fmadd	s1, s16, s5, s17
   100003a8c:	1f0404e1 	fmadd	s1, s7, s4, s1
   100003a90:	1f0284c1 	fmsub	s1, s6, s2, s1
   100003a94:	1f0548c4 	fmadd	s4, s6, s5, s18
   100003a98:	1f021202 	fmadd	s2, s16, s2, s4
   100003a9c:	1f0388e2 	fmsub	s2, s7, s3, s2
   100003aa0:	a9437bfd 	ldp	x29, x30, [sp, #48]
   100003aa4:	6d4223e9 	ldp	d9, d8, [sp, #32]
   100003aa8:	6d412beb 	ldp	d11, d10, [sp, #16]
   100003aac:	6cc433ed 	ldp	d13, d12, [sp], #64
   100003ab0:	d65f03c0 	ret

0000000100003ab4 <_main>:
   100003ab4:	d10303ff 	sub	sp, sp, #0xc0
   100003ab8:	6d0733ed 	stp	d13, d12, [sp, #112]
   100003abc:	6d082beb 	stp	d11, d10, [sp, #128]
   100003ac0:	6d0923e9 	stp	d9, d8, [sp, #144]
   100003ac4:	a90a4ff4 	stp	x20, x19, [sp, #160]
   100003ac8:	a90b7bfd 	stp	x29, x30, [sp, #176]
   100003acc:	9102c3fd 	add	x29, sp, #0xb0
   100003ad0:	d503201f 	nop
   100003ad4:	580029e8 	ldr	x8, 100004010 <_main+0x55c>
   100003ad8:	f9400108 	ldr	x8, [x8]
   100003adc:	f81b83a8 	stur	x8, [x29, #-72]
   100003ae0:	52800000 	mov	w0, #0x0                   	// #0
   100003ae4:	94000121 	bl	100003f68 <_main+0x4b4>
   100003ae8:	9400011d 	bl	100003f5c <_main+0x4a8>
   100003aec:	5289ba73 	mov	w19, #0x4dd3                	// #19923
   100003af0:	72a20c53 	movk	w19, #0x1062, lsl #16
   100003af4:	9b337c08 	smull	x8, w0, w19
   100003af8:	d360fd09 	lsr	x9, x8, #32
   100003afc:	d37ffd08 	lsr	x8, x8, #63
   100003b00:	0b891908 	add	w8, w8, w9, asr #6
   100003b04:	52807d14 	mov	w20, #0x3e8                 	// #1000
   100003b08:	1b148108 	msub	w8, w8, w20, w0
   100003b0c:	1e620100 	scvtf	d0, w8
   100003b10:	d28e3868 	mov	x8, #0x71c3                	// #29123
   100003b14:	f2b6d168 	movk	x8, #0xb68b, lsl #16
   100003b18:	f2d78ca8 	movk	x8, #0xbc65, lsl #32
   100003b1c:	f2e7ef28 	movk	x8, #0x3f79, lsl #48
   100003b20:	9e670108 	fmov	d8, x8
   100003b24:	1e680800 	fmul	d0, d0, d8
   100003b28:	1e624000 	fcvt	s0, d0
   100003b2c:	bd005be0 	str	s0, [sp, #88]
   100003b30:	9400010b 	bl	100003f5c <_main+0x4a8>
   100003b34:	9b337c08 	smull	x8, w0, w19
   100003b38:	d360fd09 	lsr	x9, x8, #32
   100003b3c:	d37ffd08 	lsr	x8, x8, #63
   100003b40:	0b891908 	add	w8, w8, w9, asr #6
   100003b44:	1b148108 	msub	w8, w8, w20, w0
   100003b48:	1e620100 	scvtf	d0, w8
   100003b4c:	1e680800 	fmul	d0, d0, d8
   100003b50:	1e624000 	fcvt	s0, d0
   100003b54:	bd005fe0 	str	s0, [sp, #92]
   100003b58:	94000101 	bl	100003f5c <_main+0x4a8>
   100003b5c:	9b337c08 	smull	x8, w0, w19
   100003b60:	d360fd09 	lsr	x9, x8, #32
   100003b64:	d37ffd08 	lsr	x8, x8, #63
   100003b68:	0b891908 	add	w8, w8, w9, asr #6
   100003b6c:	1b148108 	msub	w8, w8, w20, w0
   100003b70:	1e620100 	scvtf	d0, w8
   100003b74:	1e680800 	fmul	d0, d0, d8
   100003b78:	1e624000 	fcvt	s0, d0
   100003b7c:	bd0063e0 	str	s0, [sp, #96]
   100003b80:	940000f7 	bl	100003f5c <_main+0x4a8>
   100003b84:	9b337c08 	smull	x8, w0, w19
   100003b88:	d360fd09 	lsr	x9, x8, #32
   100003b8c:	d37ffd08 	lsr	x8, x8, #63
   100003b90:	0b891908 	add	w8, w8, w9, asr #6
   100003b94:	1b148108 	msub	w8, w8, w20, w0
   100003b98:	1e620100 	scvtf	d0, w8
   100003b9c:	1e680800 	fmul	d0, d0, d8
   100003ba0:	1e624000 	fcvt	s0, d0
   100003ba4:	bd0067e0 	str	s0, [sp, #100]
   100003ba8:	10001e68 	adr	x8, 100003f74 <_main+0x4c0>
   100003bac:	d503201f 	nop
   100003bb0:	bd40010b 	ldr	s11, [x8]
   100003bb4:	bd0057eb 	str	s11, [sp, #84]
   100003bb8:	bd40050c 	ldr	s12, [x8, #4]
   100003bbc:	bd0053ec 	str	s12, [sp, #80]
   100003bc0:	bd40090d 	ldr	s13, [x8, #8]
   100003bc4:	bd004fed 	str	s13, [sp, #76]
   100003bc8:	10001dc8 	adr	x8, 100003f80 <_main+0x4cc>
   100003bcc:	d503201f 	nop
   100003bd0:	bd400108 	ldr	s8, [x8]
   100003bd4:	bd004be8 	str	s8, [sp, #72]
   100003bd8:	bd400509 	ldr	s9, [x8, #4]
   100003bdc:	bd0047e9 	str	s9, [sp, #68]
   100003be0:	bd40090a 	ldr	s10, [x8, #8]
   100003be4:	bd0043ea 	str	s10, [sp, #64]
   100003be8:	bd405be0 	ldr	s0, [sp, #88]
   100003bec:	1e22c000 	fcvt	d0, s0
   100003bf0:	940000d2 	bl	100003f38 <_main+0x484>
   100003bf4:	1e624000 	fcvt	s0, d0
   100003bf8:	1e200962 	fmul	s2, s11, s0
   100003bfc:	1e200983 	fmul	s3, s12, s0
   100003c00:	1e2009a0 	fmul	s0, s13, s0
   100003c04:	1e624021 	fcvt	s1, d1
   100003c08:	1e210904 	fmul	s4, s8, s1
   100003c0c:	1e210945 	fmul	s5, s10, s1
   100003c10:	1f0a1064 	fmadd	s4, s3, s10, s4
   100003c14:	1f099004 	fmsub	s4, s0, s9, s4
   100003c18:	1e2a0846 	fmul	s6, s2, s10
   100003c1c:	1f219926 	fnmsub	s6, s9, s1, s6
   100003c20:	1f081806 	fmadd	s6, s0, s8, s6
   100003c24:	1f091445 	fmadd	s5, s2, s9, s5
   100003c28:	1f089465 	fmsub	s5, s3, s8, s5
   100003c2c:	1e280847 	fmul	s7, s2, s8
   100003c30:	1f091c67 	fmadd	s7, s3, s9, s7
   100003c34:	1f0a1c07 	fmadd	s7, s0, s10, s7
   100003c38:	1e2108b0 	fmul	s16, s5, s1
   100003c3c:	1e2308b1 	fmul	s17, s5, s3
   100003c40:	1f014491 	fmadd	s17, s4, s1, s17
   100003c44:	1f00c4d1 	fmsub	s17, s6, s0, s17
   100003c48:	1f0244f1 	fmadd	s17, s7, s2, s17
   100003c4c:	1e2208a5 	fmul	s5, s5, s2
   100003c50:	1f2194c1 	fnmsub	s1, s6, s1, s5
   100003c54:	1f000481 	fmadd	s1, s4, s0, s1
   100003c58:	1f0304e1 	fmadd	s1, s7, s3, s1
   100003c5c:	1f0240c2 	fmadd	s2, s6, s2, s16
   100003c60:	1f038882 	fmsub	s2, s4, s3, s2
   100003c64:	1f0008e0 	fmadd	s0, s7, s0, s2
   100003c68:	bd003ff1 	str	s17, [sp, #60]
   100003c6c:	bd003be1 	str	s1, [sp, #56]
   100003c70:	bd0037e0 	str	s0, [sp, #52]
   100003c74:	bd405be0 	ldr	s0, [sp, #88]
   100003c78:	1e22c000 	fcvt	d0, s0
   100003c7c:	bd403fe1 	ldr	s1, [sp, #60]
   100003c80:	1e22c021 	fcvt	d1, s1
   100003c84:	bd403be2 	ldr	s2, [sp, #56]
   100003c88:	1e22c042 	fcvt	d2, s2
   100003c8c:	bd4037e3 	ldr	s3, [sp, #52]
   100003c90:	1e22c063 	fcvt	d3, s3
   100003c94:	6d018fe2 	stp	d2, d3, [sp, #24]
   100003c98:	6d0087e0 	stp	d0, d1, [sp, #8]
   100003c9c:	f90003ff 	str	xzr, [sp]
   100003ca0:	10001773 	adr	x19, 100003f8c <_main+0x4d8>
   100003ca4:	d503201f 	nop
   100003ca8:	aa1303e0 	mov	x0, x19
   100003cac:	940000a9 	bl	100003f50 <_main+0x49c>
   100003cb0:	bd405fe0 	ldr	s0, [sp, #92]
   100003cb4:	1e22c000 	fcvt	d0, s0
   100003cb8:	940000a0 	bl	100003f38 <_main+0x484>
   100003cbc:	1e624000 	fcvt	s0, d0
   100003cc0:	1e200962 	fmul	s2, s11, s0
   100003cc4:	1e200983 	fmul	s3, s12, s0
   100003cc8:	1e2009a0 	fmul	s0, s13, s0
   100003ccc:	1e624021 	fcvt	s1, d1
   100003cd0:	1e210904 	fmul	s4, s8, s1
   100003cd4:	1e210945 	fmul	s5, s10, s1
   100003cd8:	1f0a1064 	fmadd	s4, s3, s10, s4
   100003cdc:	1f099004 	fmsub	s4, s0, s9, s4
   100003ce0:	1e2a0846 	fmul	s6, s2, s10
   100003ce4:	1f219926 	fnmsub	s6, s9, s1, s6
   100003ce8:	1f081806 	fmadd	s6, s0, s8, s6
   100003cec:	1f091445 	fmadd	s5, s2, s9, s5
   100003cf0:	1f089465 	fmsub	s5, s3, s8, s5
   100003cf4:	1e280847 	fmul	s7, s2, s8
   100003cf8:	1f091c67 	fmadd	s7, s3, s9, s7
   100003cfc:	1f0a1c07 	fmadd	s7, s0, s10, s7
   100003d00:	1e2108b0 	fmul	s16, s5, s1
   100003d04:	1e2308b1 	fmul	s17, s5, s3
   100003d08:	1f014491 	fmadd	s17, s4, s1, s17
   100003d0c:	1f00c4d1 	fmsub	s17, s6, s0, s17
   100003d10:	1f0244f1 	fmadd	s17, s7, s2, s17
   100003d14:	1e2208a5 	fmul	s5, s5, s2
   100003d18:	1f2194c1 	fnmsub	s1, s6, s1, s5
   100003d1c:	1f000481 	fmadd	s1, s4, s0, s1
   100003d20:	1f0304e1 	fmadd	s1, s7, s3, s1
   100003d24:	1f0240c2 	fmadd	s2, s6, s2, s16
   100003d28:	1f038882 	fmsub	s2, s4, s3, s2
   100003d2c:	1f0008e0 	fmadd	s0, s7, s0, s2
   100003d30:	bd003ff1 	str	s17, [sp, #60]
   100003d34:	bd003be1 	str	s1, [sp, #56]
   100003d38:	bd0037e0 	str	s0, [sp, #52]
   100003d3c:	bd405fe0 	ldr	s0, [sp, #92]
   100003d40:	1e22c000 	fcvt	d0, s0
   100003d44:	bd403fe1 	ldr	s1, [sp, #60]
   100003d48:	1e22c021 	fcvt	d1, s1
   100003d4c:	bd403be2 	ldr	s2, [sp, #56]
   100003d50:	1e22c042 	fcvt	d2, s2
   100003d54:	bd4037e3 	ldr	s3, [sp, #52]
   100003d58:	1e22c063 	fcvt	d3, s3
   100003d5c:	6d018fe2 	stp	d2, d3, [sp, #24]
   100003d60:	6d0087e0 	stp	d0, d1, [sp, #8]
   100003d64:	52800028 	mov	w8, #0x1                   	// #1
   100003d68:	f90003e8 	str	x8, [sp]
   100003d6c:	aa1303e0 	mov	x0, x19
   100003d70:	94000078 	bl	100003f50 <_main+0x49c>
   100003d74:	bd4063e0 	ldr	s0, [sp, #96]
   100003d78:	1e22c000 	fcvt	d0, s0
   100003d7c:	9400006f 	bl	100003f38 <_main+0x484>
   100003d80:	1e624000 	fcvt	s0, d0
   100003d84:	1e200962 	fmul	s2, s11, s0
   100003d88:	1e200983 	fmul	s3, s12, s0
   100003d8c:	1e2009a0 	fmul	s0, s13, s0
   100003d90:	1e624021 	fcvt	s1, d1
   100003d94:	1e210904 	fmul	s4, s8, s1
   100003d98:	1e210945 	fmul	s5, s10, s1
   100003d9c:	1f0a1064 	fmadd	s4, s3, s10, s4
   100003da0:	1f099004 	fmsub	s4, s0, s9, s4
   100003da4:	1e2a0846 	fmul	s6, s2, s10
   100003da8:	1f219926 	fnmsub	s6, s9, s1, s6
   100003dac:	1f081806 	fmadd	s6, s0, s8, s6
   100003db0:	1f091445 	fmadd	s5, s2, s9, s5
   100003db4:	1f089465 	fmsub	s5, s3, s8, s5
   100003db8:	1e280847 	fmul	s7, s2, s8
   100003dbc:	1f091c67 	fmadd	s7, s3, s9, s7
   100003dc0:	1f0a1c07 	fmadd	s7, s0, s10, s7
   100003dc4:	1e2108b0 	fmul	s16, s5, s1
   100003dc8:	1e2308b1 	fmul	s17, s5, s3
   100003dcc:	1f014491 	fmadd	s17, s4, s1, s17
   100003dd0:	1f00c4d1 	fmsub	s17, s6, s0, s17
   100003dd4:	1f0244f1 	fmadd	s17, s7, s2, s17
   100003dd8:	1e2208a5 	fmul	s5, s5, s2
   100003ddc:	1f2194c1 	fnmsub	s1, s6, s1, s5
   100003de0:	1f000481 	fmadd	s1, s4, s0, s1
   100003de4:	1f0304e1 	fmadd	s1, s7, s3, s1
   100003de8:	1f0240c2 	fmadd	s2, s6, s2, s16
   100003dec:	1f038882 	fmsub	s2, s4, s3, s2
   100003df0:	1f0008e0 	fmadd	s0, s7, s0, s2
   100003df4:	bd003ff1 	str	s17, [sp, #60]
   100003df8:	bd003be1 	str	s1, [sp, #56]
   100003dfc:	bd0037e0 	str	s0, [sp, #52]
   100003e00:	bd4063e0 	ldr	s0, [sp, #96]
   100003e04:	1e22c000 	fcvt	d0, s0
   100003e08:	bd403fe1 	ldr	s1, [sp, #60]
   100003e0c:	1e22c021 	fcvt	d1, s1
   100003e10:	bd403be2 	ldr	s2, [sp, #56]
   100003e14:	1e22c042 	fcvt	d2, s2
   100003e18:	bd4037e3 	ldr	s3, [sp, #52]
   100003e1c:	1e22c063 	fcvt	d3, s3
   100003e20:	6d018fe2 	stp	d2, d3, [sp, #24]
   100003e24:	6d0087e0 	stp	d0, d1, [sp, #8]
   100003e28:	52800048 	mov	w8, #0x2                   	// #2
   100003e2c:	f90003e8 	str	x8, [sp]
   100003e30:	aa1303e0 	mov	x0, x19
   100003e34:	94000047 	bl	100003f50 <_main+0x49c>
   100003e38:	bd4067e0 	ldr	s0, [sp, #100]
   100003e3c:	1e22c000 	fcvt	d0, s0
   100003e40:	9400003e 	bl	100003f38 <_main+0x484>
   100003e44:	1e624000 	fcvt	s0, d0
   100003e48:	1e200962 	fmul	s2, s11, s0
   100003e4c:	1e200983 	fmul	s3, s12, s0
   100003e50:	1e2009a0 	fmul	s0, s13, s0
   100003e54:	1e624021 	fcvt	s1, d1
   100003e58:	1e210904 	fmul	s4, s8, s1
   100003e5c:	1e210945 	fmul	s5, s10, s1
   100003e60:	1f0a1064 	fmadd	s4, s3, s10, s4
   100003e64:	1f099004 	fmsub	s4, s0, s9, s4
   100003e68:	1e2a0846 	fmul	s6, s2, s10
   100003e6c:	1f219926 	fnmsub	s6, s9, s1, s6
   100003e70:	1f081806 	fmadd	s6, s0, s8, s6
   100003e74:	1f091445 	fmadd	s5, s2, s9, s5
   100003e78:	1f089465 	fmsub	s5, s3, s8, s5
   100003e7c:	1e280847 	fmul	s7, s2, s8
   100003e80:	1f091c67 	fmadd	s7, s3, s9, s7
   100003e84:	1f0a1c07 	fmadd	s7, s0, s10, s7
   100003e88:	1e2108b0 	fmul	s16, s5, s1
   100003e8c:	1e2308b1 	fmul	s17, s5, s3
   100003e90:	1f014491 	fmadd	s17, s4, s1, s17
   100003e94:	1f00c4d1 	fmsub	s17, s6, s0, s17
   100003e98:	1f0244f1 	fmadd	s17, s7, s2, s17
   100003e9c:	1e2208a5 	fmul	s5, s5, s2
   100003ea0:	1f2194c1 	fnmsub	s1, s6, s1, s5
   100003ea4:	1f000481 	fmadd	s1, s4, s0, s1
   100003ea8:	1f0304e1 	fmadd	s1, s7, s3, s1
   100003eac:	1f0240c2 	fmadd	s2, s6, s2, s16
   100003eb0:	1f038882 	fmsub	s2, s4, s3, s2
   100003eb4:	1f0008e0 	fmadd	s0, s7, s0, s2
   100003eb8:	bd003ff1 	str	s17, [sp, #60]
   100003ebc:	bd003be1 	str	s1, [sp, #56]
   100003ec0:	bd0037e0 	str	s0, [sp, #52]
   100003ec4:	bd4067e0 	ldr	s0, [sp, #100]
   100003ec8:	1e22c000 	fcvt	d0, s0
   100003ecc:	bd403fe1 	ldr	s1, [sp, #60]
   100003ed0:	1e22c021 	fcvt	d1, s1
   100003ed4:	bd403be2 	ldr	s2, [sp, #56]
   100003ed8:	1e22c042 	fcvt	d2, s2
   100003edc:	bd4037e3 	ldr	s3, [sp, #52]
   100003ee0:	1e22c063 	fcvt	d3, s3
   100003ee4:	6d018fe2 	stp	d2, d3, [sp, #24]
   100003ee8:	6d0087e0 	stp	d0, d1, [sp, #8]
   100003eec:	52800068 	mov	w8, #0x3                   	// #3
   100003ef0:	f90003e8 	str	x8, [sp]
   100003ef4:	aa1303e0 	mov	x0, x19
   100003ef8:	94000016 	bl	100003f50 <_main+0x49c>
   100003efc:	f85b83a8 	ldur	x8, [x29, #-72]
   100003f00:	d503201f 	nop
   100003f04:	58000869 	ldr	x9, 100004010 <_main+0x55c>
   100003f08:	f9400129 	ldr	x9, [x9]
   100003f0c:	eb08013f 	cmp	x9, x8
   100003f10:	54000121 	b.ne	100003f34 <_main+0x480>  // b.any
   100003f14:	52800000 	mov	w0, #0x0                   	// #0
   100003f18:	a94b7bfd 	ldp	x29, x30, [sp, #176]
   100003f1c:	a94a4ff4 	ldp	x20, x19, [sp, #160]
   100003f20:	6d4923e9 	ldp	d9, d8, [sp, #144]
   100003f24:	6d482beb 	ldp	d11, d10, [sp, #128]
   100003f28:	6d4733ed 	ldp	d13, d12, [sp, #112]
   100003f2c:	910303ff 	add	sp, sp, #0xc0
   100003f30:	d65f03c0 	ret
   100003f34:	94000004 	bl	100003f44 <_main+0x490>

Disassembly of section __TEXT.__stubs:

0000000100003f38 <__TEXT.__stubs>:
   100003f38:	b0000010 	adrp	x16, 100004000 <_main+0x54c>
   100003f3c:	f9400210 	ldr	x16, [x16]
   100003f40:	d61f0200 	br	x16
   100003f44:	b0000010 	adrp	x16, 100004000 <_main+0x54c>
   100003f48:	f9400610 	ldr	x16, [x16, #8]
   100003f4c:	d61f0200 	br	x16
   100003f50:	b0000010 	adrp	x16, 100004000 <_main+0x54c>
   100003f54:	f9400e10 	ldr	x16, [x16, #24]
   100003f58:	d61f0200 	br	x16
   100003f5c:	b0000010 	adrp	x16, 100004000 <_main+0x54c>
   100003f60:	f9401210 	ldr	x16, [x16, #32]
   100003f64:	d61f0200 	br	x16
   100003f68:	b0000010 	adrp	x16, 100004000 <_main+0x54c>
   100003f6c:	f9401610 	ldr	x16, [x16, #40]
   100003f70:	d61f0200 	br	x16

Disassembly of section __TEXT.__unwind_info:

0000000100003fb0 <__TEXT.__unwind_info>:
   100003fb0:	00000001 	udf	#1
   100003fb4:	0000001c 	udf	#28
   100003fb8:	00000000 	udf	#0
   100003fbc:	0000001c 	udf	#28
   100003fc0:	00000000 	udf	#0
   100003fc4:	0000001c 	udf	#28
   100003fc8:	00000002 	udf	#2
   100003fcc:	000039f8 	udf	#14840
   100003fd0:	00000034 	udf	#52
   100003fd4:	00000034 	udf	#52
   100003fd8:	00003f39 	udf	#16185
   100003fdc:	00000000 	udf	#0
   100003fe0:	00000034 	udf	#52
   100003fe4:	00000003 	udf	#3
   100003fe8:	0002000c 	.inst	0x0002000c ; undefined
   100003fec:	00020014 	.inst	0x00020014 ; undefined
   100003ff0:	01000000 	.inst	0x01000000 ; undefined
   100003ff4:	000000bc 	udf	#188
   100003ff8:	04000701 	add	z1.b, p1/m, z1.b, z24.b
   100003ffc:	04000700 	add	z0.b, p1/m, z0.b, z24.b
